; Function Attrs: null_pointer_is_valid sspstrong uwtable
define internal void @dissect_pfcp_mac_addresses_removed(ptr noundef %0, ptr noundef %1, ptr noundef %2, ptr readnone captures(none) %3, i16 noundef zeroext %4, i8 zeroext %5, ptr readnone captures(none) %6) #0 {
  %8 = alloca i32, align 4
  %9 = alloca i32, align 4
  %10 = alloca i32, align 4
  call void @llvm.lifetime.start.p0(i64 4, ptr nonnull %8) #15
  call void @llvm.lifetime.start.p0(i64 4, ptr nonnull %9) #15
  call void @llvm.lifetime.start.p0(i64 4, ptr nonnull %10) #15
  %11 = load i32, ptr @hf_pfcp_mac_addresses_removed_number_of_mac_addresses, align 4
  %12 = call ptr @proto_tree_add_item_ret_uint(ptr noundef %2, i32 noundef %11, ptr noundef %0, i32 noundef 0, i32 noundef 1, i32 noundef 0, ptr noundef nonnull %8)
  %13 = load i32, ptr %8, align 4
  %.not40 = icmp eq i32 %13, 0
  br i1 %.not40, label %._crit_edge, label %.lr.ph

.lr.ph:                                           ; preds = %7, %.lr.ph
  %.039 = phi i32 [ %17, %.lr.ph ], [ 0, %7 ]
  %.03538 = phi i32 [ %16, %.lr.ph ], [ 1, %7 ]
  %14 = load i32, ptr @hf_pfcp_mac_addresses_removed_mac_address, align 4
  %15 = call ptr @proto_tree_add_item(ptr noundef %2, i32 noundef %14, ptr noundef %0, i32 noundef %.03538, i32 noundef 6, i32 noundef 0)
  %16 = add i32 %.03538, 6
  %17 = add nuw i32 %.039, 1
  %18 = load i32, ptr %8, align 4
  %19 = icmp ult i32 %17, %18
  br i1 %19, label %.lr.ph, label %._crit_edge, !llvm.loop !24

._crit_edge:                                      ; preds = %.lr.ph, %7
  %.035.lcssa = phi i32 [ 1, %7 ], [ %16, %.lr.ph ]
  %20 = zext i16 %4 to i32
  %21 = icmp eq i32 %.035.lcssa, %20
  br i1 %21, label %56, label %22

22:                                               ; preds = %._crit_edge
  %23 = load i32, ptr @hf_pfcp_mac_addresses_removed_length_of_ctag, align 4
  %24 = call ptr @proto_tree_add_item_ret_uint(ptr noundef %2, i32 noundef %23, ptr noundef %0, i32 noundef %.035.lcssa, i32 noundef 1, i32 noundef 0, ptr noundef nonnull %9)
  %25 = add i32 %.035.lcssa, 1
  %26 = load i32, ptr %9, align 4
  %.not = icmp eq i32 %26, 0
  br i1 %.not, label %37, label %27

27:                                               ; preds = %22
  call void @proto_tree_add_bitmask_list(ptr noundef %2, ptr noundef %0, i32 noundef %25, i32 noundef 1, ptr noundef nonnull @decode_pfcp_c_tag.pfcp_c_tag_flags, i32 noundef 0)
  %28 = add i32 %.035.lcssa, 2
  %29 = load i32, ptr @hf_pfcp_c_tag_cvid, align 4
  %30 = shl i32 %28, 3
  %31 = call ptr @proto_tree_add_split_bits_item_ret_val(ptr noundef %2, i32 noundef %29, ptr noundef %0, i32 noundef %30, ptr noundef nonnull @decode_pfcp_c_tag.pfcp_c_tag_cvid_crumbs, ptr noundef null)
  %32 = load i32, ptr @hf_pfcp_c_tag_dei_flag, align 4
  %33 = call ptr @proto_tree_add_item(ptr noundef %2, i32 noundef %32, ptr noundef %0, i32 noundef %28, i32 noundef 1, i32 noundef 0)
  %34 = load i32, ptr @hf_pfcp_c_tag_pcp_value, align 4
  %35 = call ptr @proto_tree_add_item(ptr noundef %2, i32 noundef %34, ptr noundef %0, i32 noundef %28, i32 noundef 1, i32 noundef 0)
  %36 = add i32 %.035.lcssa, 4
  br label %37

37:                                               ; preds = %27, %22
  %.1 = phi i32 [ %36, %27 ], [ %25, %22 ]
  %38 = load i32, ptr @hf_pfcp_mac_addresses_removed_length_of_stag, align 4
  %39 = call ptr @proto_tree_add_item_ret_uint(ptr noundef %2, i32 noundef %38, ptr noundef %0, i32 noundef %.1, i32 noundef 1, i32 noundef 0, ptr noundef nonnull %10)
  %40 = add i32 %.1, 1
  %41 = load i32, ptr %10, align 4
  %.not37 = icmp eq i32 %41, 0
  br i1 %.not37, label %52, label %42

42:                                               ; preds = %37
  call void @proto_tree_add_bitmask_list(ptr noundef %2, ptr noundef %0, i32 noundef %40, i32 noundef 1, ptr noundef nonnull @decode_pfcp_s_tag.pfcp_s_tag_flags, i32 noundef 0)
  %43 = add i32 %.1, 2
  %44 = load i32, ptr @hf_pfcp_s_tag_svid, align 4
  %45 = shl i32 %43, 3
  %46 = call ptr @proto_tree_add_split_bits_item_ret_val(ptr noundef %2, i32 noundef %44, ptr noundef %0, i32 noundef %45, ptr noundef nonnull @decode_pfcp_s_tag.pfcp_s_tag_svid_crumbs, ptr noundef null)
  %47 = load i32, ptr @hf_pfcp_s_tag_dei_flag, align 4
  %48 = call ptr @proto_tree_add_item(ptr noundef %2, i32 noundef %47, ptr noundef %0, i32 noundef %43, i32 noundef 1, i32 noundef 0)
  %49 = load i32, ptr @hf_pfcp_s_tag_pcp_value, align 4
  %50 = call ptr @proto_tree_add_item(ptr noundef %2, i32 noundef %49, ptr noundef %0, i32 noundef %43, i32 noundef 1, i32 noundef 0)
  %51 = add i32 %.1, 4
  br label %52

52:                                               ; preds = %42, %37
  %.2 = phi i32 [ %51, %42 ], [ %40, %37 ]
  %53 = icmp slt i32 %.2, %20
  br i1 %53, label %54, label %56

54:                                               ; preds = %52
  %55 = call ptr @proto_tree_add_expert(ptr noundef %2, ptr noundef %1, ptr noundef nonnull @ei_pfcp_ie_data_not_decoded, ptr noundef %0, i32 noundef %.2, i32 noundef -1)
  br label %56

56:                                               ; preds = %52, %54, %._crit_edge
  call void @llvm.lifetime.end.p0(i64 4, ptr nonnull %10) #15
  call void @llvm.lifetime.end.p0(i64 4, ptr nonnull %9) #15
  call void @llvm.lifetime.end.p0(i64 4, ptr nonnull %8) #15
  ret void
}